target datalayout = "e-m:e-p270:32:32-p271:32:32-p272:64:64-i64:64-i128:128-f80:128-n8:16:32:64-S128"
target triple = "x86_64-pc-linux-gnu"

%"class.(anonymous namespace)::tactic2solver" = type <{ %class.solver_na2as, %class.ref_vector, %class.ref_vector, i32, [4 x i8], %class.svector, %class.ref.1, %class.ref.2, %class.ref, %class.symbol, i8, i8, i8, [5 x i8], %class.statistics, i8, [7 x i8] }>
%class.solver_na2as = type { %class.solver, %class.ref_vector, %class.svector }
%class.solver = type { %class.check_sat_result, %"class.user_propagator::core", %class.params_ref, %class.symbol }
%class.check_sat_result = type { ptr, ptr, %class.ref_vector, %class.obj_ref, i32, i32, %class.ref, double }
%class.obj_ref = type { ptr, ptr }
%"class.user_propagator::core" = type { ptr }
%class.params_ref = type { ptr }
%class.ref_vector = type { %class.ref_vector_core }
%class.ref_vector_core = type { %class.ref_manager_wrapper, %class.ptr_vector }
%class.ref_manager_wrapper = type { ptr }
%class.ptr_vector = type { %class.vector }
%class.vector = type { ptr }
%class.svector = type { %class.vector.0 }
%class.vector.0 = type { ptr }
%class.ref.1 = type { ptr }
%class.ref.2 = type { ptr }
%class.ref = type { ptr }
%class.symbol = type { ptr }
%class.statistics = type { %class.svector.3, %class.svector.5 }
%class.svector.3 = type { %class.vector.4 }
%class.vector.4 = type { ptr }
%class.svector.5 = type { %class.vector.6 }
%class.vector.6 = type { ptr }

; Function Attrs: mustprogress nounwind uwtable
define linkonce_odr hidden noundef ptr @_ZNK3refI23simple_check_sat_resultEptEv(ptr noundef nonnull align 8 dereferenceable(8) %0) #5 comdat align 2 {
  %2 = alloca ptr, align 8
  store ptr %0, ptr %2, align 8, !tbaa !77
  %3 = load ptr, ptr %2, align 8
  %4 = getelementptr inbounds nuw %class.ref.1, ptr %3, i32 0, i32 0
  %5 = load ptr, ptr %4, align 8, !tbaa !79
  ret ptr %5
}

; Function Attrs: mustprogress nounwind uwtable
define linkonce_odr hidden noundef ptr @_ZNK3refI23simple_check_sat_resultE3getEv(ptr noundef nonnull align 8 dereferenceable(8) %0) #5 comdat align 2 {
  %2 = alloca ptr, align 8
  store ptr %0, ptr %2, align 8, !tbaa !77
  %3 = load ptr, ptr %2, align 8
  %4 = getelementptr inbounds nuw %class.ref.1, ptr %3, i32 0, i32 0
  %5 = load ptr, ptr %4, align 8, !tbaa !79
  ret ptr %5
}

; Function Attrs: mustprogress uwtable
define internal void @_ZN12_GLOBAL__N_113tactic2solver18set_reason_unknownEPKc(ptr noundef nonnull align 8 dereferenceable(225) %0, ptr noundef %1) unnamed_addr #4 align 2 {
  %3 = alloca ptr, align 8
  %4 = alloca ptr, align 8
  store ptr %0, ptr %3, align 8, !tbaa !18
  store ptr %1, ptr %4, align 8, !tbaa !61
  %5 = load ptr, ptr %3, align 8
  %6 = getelementptr inbounds nuw %"class.(anonymous namespace)::tactic2solver", ptr %5, i32 0, i32 6
  %7 = call noundef ptr @_ZNK3refI23simple_check_sat_resultE3getEv(ptr noundef nonnull align 8 dereferenceable(8) %6)
  %8 = icmp ne ptr %7, null
  br i1 %8, label %9, label %16

9:                                                ; preds = %2
  %10 = getelementptr inbounds nuw %"class.(anonymous namespace)::tactic2solver", ptr %5, i32 0, i32 6
  %11 = call noundef ptr @_ZNK3refI23simple_check_sat_resultEptEv(ptr noundef nonnull align 8 dereferenceable(8) %10)
  %12 = load ptr, ptr %4, align 8, !tbaa !61
  %13 = load ptr, ptr %11, align 8, !tbaa !20
  %14 = getelementptr inbounds ptr, ptr %13, i64 7
  %15 = load ptr, ptr %14, align 8
  call void %15(ptr noundef nonnull align 8 dereferenceable(160) %11, ptr noundef %12)
  br label %16

16:                                               ; preds = %9, %2
  ret void
}